(dp0
F0.5
(I17
(lp1
F0.182605
aF0.26594500000000004
aF0.28876
aF0.30303
aF0.295535
aF0.27949999999999997
aF0.185855
aF0.24580500000000002
aF0.27210500000000004
aF0.2323
aF0.25089000000000006
aF0.313405
aF0.30466499999999996
aF0.3261300000000001
aF0.23756
aF0.25238
aF0.25835500000000006
aF0.2385
aF0.22465000000000004
aF0.276725
aF0.216165
aF0.331065
aF0.305575
aF0.22394
aF0.29924
aF0.326615
aF0.339605
aF0.22155000000000005
aF0.23928
aF0.23898
aF0.26097000000000004
aF0.31994500000000003
aF0.35022
aF0.11695000000000003
aF0.22890000000000005
aF0.337965
aF0.24906500000000004
aF0.25211500000000003
aF0.2636
aF0.27033999999999997
aF0.3138
aF0.26047
aF0.27954999999999997
aF0.299775
aF0.244145
aF0.304195
aF0.215235
aF0.26033999999999996
aF0.270005
aF0.22753
aF0.25571
aF0.21975000000000006
aF0.30355000000000004
aF0.34626
aF0.22781
aF0.274005
aF0.29013
aF0.30947
aF0.2619700000000001
aF0.3823999999999999
aF0.24023
aF0.244315
aF0.289115
aF0.35500000000000004
aF0.26236000000000004
aF0.262945
aF0.29142
aF0.19615000000000002
aF0.28254500000000005
aF0.24449999999999997
aF0.213595
aF0.314405
aF0.27597000000000005
aF0.26736000000000004
aF0.16702999999999996
aF0.25075000000000003
aF0.11118499999999999
aF0.258325
aF0.32276
aF0.21832500000000002
aF0.298765
aF0.22033000000000003
aF0.24670999999999998
aF0.3172
aF0.23968
aF0.266
aF0.15748500000000004
aF0.27844
aF0.17880000000000001
aF0.23814
aF0.265005
aF0.21625000000000003
aF0.23351999999999995
aF0.21940500000000002
aF0.25219500000000006
aF0.25395500000000004
aF0.33779999999999993
aF0.254255
aF0.204375
aF0.317805
aF0.286045
aF0.21221500000000001
aF0.1785
aF0.335975
aF0.22323500000000002
aF0.33665500000000004
aF0.26299000000000006
aF0.24383
aF0.23744500000000002
aF0.25173
aF0.3299750000000001
aF0.180095
aF0.27315
aF0.252965
aF0.291435
aF0.19527
aF0.20631499999999997
aF0.26180000000000003
aF0.25260000000000005
aF0.25148
aF0.26975000000000005
aF0.24803000000000003
aF0.135
aF0.169835
aF0.24759
aF0.30940500000000004
aF0.193335
aF0.35209
aF0.15876500000000002
aF0.22799000000000003
aF0.294335
aF0.123475
aF0.24138499999999996
aF0.2937
aF0.16252500000000003
aF0.20984999999999998
aF0.29539499999999996
aF0.24289
aF0.32780000000000004
aF0.1968
aF0.32969
aF0.25705
aF0.27620000000000006
aF0.31061
aF0.22841499999999998
aF0.190695
aF0.19825000000000004
aF0.2610950000000001
aF0.29234499999999997
aF0.17471
aF0.27645
aF0.288065
aF0.165145
aF0.17646500000000004
aF0.2925
aF0.25992499999999996
aF0.25115000000000004
aF0.23750000000000004
aF0.18003000000000002
aF0.27585
aF0.31677
aF0.15538
aF0.180025
aF0.33410500000000004
aF0.2535
aF0.1949
aF0.31941
aF0.168745
aF0.3269
aF0.32636000000000004
aF0.27031499999999997
aF0.336485
aF0.30498499999999995
aF0.24296000000000004
aF0.20755
aF0.22201500000000002
aF0.23792
aF0.296085
aF0.284015
aF0.33097000000000004
aF0.32023500000000005
aF0.291405
aF0.29605000000000004
aF0.298095
aF0.23855500000000002
aF0.23473000000000005
aF0.26781499999999997
aF0.2576
aF0.23983499999999996
aF0.268
aF0.24062000000000003
aF0.17867000000000005
aF0.265855
aF0.329125
aF0.29682000000000003
aF0.238585
aF0.323825
aF0.21491500000000002
aF0.21280499999999997
aF0.20331499999999997
aF0.20875500000000002
aF0.2635
aF0.19626500000000002
aF0.26907000000000003
aF0.25473000000000007
aF0.359185
aF0.22207000000000002
aF0.16153499999999998
aF0.176085
aF0.22888000000000003
aF0.3009
aF0.16269500000000003
aF0.228435
aF0.189
aF0.22913
aF0.20478000000000002
aF0.1724
aF0.2809
aF0.24073500000000003
aF0.19262500000000002
aF0.34394499999999995
aF0.25045
aF0.303535
aF0.34222
aF0.39042000000000004
aF0.25365000000000004
aF0.21351499999999998
aF0.291295
aF0.19974000000000003
aF0.20043500000000003
aF0.274935
aF0.243635
aF0.167485
aF0.32926
aF0.16352
aF0.203625
aF0.29240499999999997
aF0.2349
aF0.203615
aF0.29049
aF0.33293500000000004
aF0.23857
aF0.386895
aF0.292665
aF0.1096
aF0.23604999999999998
aF0.188475
aF0.36478999999999995
aF0.24268
aF0.40476
aF0.267145
aF0.17890000000000003
aF0.10196499999999999
aF0.248095
aF0.26076
aF0.167555
aF0.307685
aF0.20086000000000004
aF0.24321000000000004
aF0.21915
aF0.261
atp2
s.